Certificate:
    Data:
        Version: 3 (0x2)
        Serial Number: 167332209 (0x9f94971)
        Signature Algorithm: sha1WithRSAEncryption
        Issuer: C=DE, O=DFN-Verein, OU=DFN-PKI, CN=DFN-Verein PCA Global - G01
        Validity
            Not Before: Feb 19 16:10:11 2007 GMT
            Not After : Feb 18 00:00:00 2019 GMT
        Subject: C=DE, O=DFN-Verein, OU=WiNShuttle, CN=DFN-WiNShuttle-CA - G02/emailAddress=ca-winshuttle@dfn.de
        Subject Public Key Info:
            Public Key Algorithm: rsaEncryption
            RSA Public Key: (2048 bit)
                Modulus (2048 bit):
                    00:f5:1b:95:cf:2e:1a:60:0b:a6:db:7d:eb:aa:92:
                    05:96:46:a5:13:a9:91:ef:ed:95:48:5e:60:54:1e:
                    ee:14:ee:2c:ea:eb:ff:68:db:3a:dd:e8:3f:61:15:
                    6c:38:af:00:c5:e4:17:05:2b:20:3f:d9:66:1f:91:
                    36:71:3f:11:ef:e0:e2:11:82:33:3d:9f:70:76:df:
                    85:7c:98:e8:e6:4b:ce:b0:46:fa:31:79:a9:3b:7a:
                    89:eb:75:2e:c0:a0:6b:a8:36:81:67:cd:e1:67:67:
                    11:13:fb:30:8c:02:2d:06:34:34:56:c8:b2:06:64:
                    a9:e2:72:21:d4:ba:e6:5b:62:fc:4a:72:ad:b6:b2:
                    53:1e:f3:a7:7c:0a:74:2c:e9:ac:7e:30:b2:41:09:
                    e7:c6:65:71:fa:ef:e7:19:0c:3f:6f:57:7d:af:67:
                    1e:81:ee:2f:26:60:8a:46:f9:86:7d:58:27:09:ac:
                    bf:0e:0e:8f:cc:f7:37:99:bb:96:1c:a3:fd:90:28:
                    5f:f6:b9:34:2c:1b:13:f8:6e:25:59:a4:1d:e2:f0:
                    a8:8b:69:c5:42:b4:01:af:90:30:c6:87:77:fe:7d:
                    66:e0:c2:c4:21:be:c4:7f:fb:6f:ed:04:12:a4:d9:
                    8a:1e:b8:e2:71:0d:ed:e4:bb:36:72:26:46:2c:7d:
                    27:13
                Exponent: 65537 (0x10001)
        X509v3 extensions:
            X509v3 Basic Constraints: critical
                CA:TRUE
            X509v3 Key Usage: 
                Certificate Sign, CRL Sign
            X509v3 Subject Key Identifier: 
                6B:35:F7:93:8C:92:F7:47:12:FC:8B:AD:28:F5:5C:B7:21:67:31:D1
            X509v3 Authority Key Identifier: 
                keyid:49:B7:C6:CF:E8:3D:1F:7F:EA:44:7B:13:29:F7:F1:0A:70:3E:DE:64

            X509v3 Subject Alternative Name: 
                email:ca-winshuttle@dfn.de
            X509v3 CRL Distribution Points: 
                URI:http://cdp1.pca.dfn.de/global-root-ca/pub/crl/cacrl.crl
                URI:http://cdp2.pca.dfn.de/global-root-ca/pub/crl/cacrl.crl

            Authority Information Access: 
                CA Issuers - URI:http://cdp1.pca.dfn.de/global-root-ca/pub/cacert/cacert.crt
                CA Issuers - URI:http://cdp2.pca.dfn.de/global-root-ca/pub/cacert/cacert.crt

    Signature Algorithm: sha1WithRSAEncryption
        1f:16:ff:0b:99:39:d8:d3:42:57:39:58:b9:0e:49:22:9d:7d:
        b3:31:ae:fb:9f:f9:4f:b9:52:2c:be:c9:48:eb:95:ee:33:7d:
        06:5e:59:9f:09:a9:51:bf:77:39:36:53:e9:ab:48:af:9e:12:
        ea:d1:fb:d7:79:a1:26:8c:aa:29:31:37:c0:31:65:98:a4:cb:
        8a:83:7a:ca:ca:dc:47:3e:64:1c:a0:c8:98:a6:c5:44:27:4f:
        dd:3d:57:3a:7c:c8:c9:fd:a8:62:f8:59:04:85:29:16:f7:04:
        5f:32:d9:62:c1:6a:14:9e:33:21:d0:0f:81:f3:e7:f5:03:d3:
        61:1f:f3:d7:55:b2:b5:f2:73:64:52:f5:3b:f7:4a:bf:98:61:
        9a:2b:f6:e4:06:3a:16:94:15:4b:78:f5:1c:7a:7b:57:ca:12:
        83:c6:da:fc:b3:f7:be:76:78:2b:f0:0e:e0:9b:75:8b:62:16:
        10:99:f3:2b:c3:69:04:4b:fb:31:4e:a1:2a:c8:d0:18:1e:56:
        69:4f:8a:68:d6:dc:06:27:f4:d1:f9:b8:7f:39:e3:b0:04:0f:
        db:32:c6:bf:14:23:d5:69:a3:0a:47:b6:6a:f4:7e:d8:e6:79:
        2c:a5:64:f2:7a:47:c0:92:98:7c:26:29:af:1f:4c:be:4d:87:
        33:d9:d9:fc
-----BEGIN CERTIFICATE-----
MIIFCzCCA/OgAwIBAgIECflJcTANBgkqhkiG9w0BAQUFADBaMQswCQYDVQQGEwJE
RTETMBEGA1UEChMKREZOLVZlcmVpbjEQMA4GA1UECxMHREZOLVBLSTEkMCIGA1UE
AxMbREZOLVZlcmVpbiBQQ0EgR2xvYmFsIC0gRzAxMB4XDTA3MDIxOTE2MTAxMVoX
DTE5MDIxODAwMDAwMFowfjELMAkGA1UEBhMCREUxEzARBgNVBAoTCkRGTi1WZXJl
aW4xEzARBgNVBAsTCldpTlNodXR0bGUxIDAeBgNVBAMTF0RGTi1XaU5TaHV0dGxl
LUNBIC0gRzAyMSMwIQYJKoZIhvcNAQkBFhRjYS13aW5zaHV0dGxlQGRmbi5kZTCC
ASIwDQYJKoZIhvcNAQEBBQADggEPADCCAQoCggEBAPUblc8uGmALptt966qSBZZG
pROpke/tlUheYFQe7hTuLOrr/2jbOt3oP2EVbDivAMXkFwUrID/ZZh+RNnE/Ee/g
4hGCMz2fcHbfhXyY6OZLzrBG+jF5qTt6iet1LsCga6g2gWfN4WdnERP7MIwCLQY0
NFbIsgZkqeJyIdS65lti/EpyrbayUx7zp3wKdCzprH4wskEJ58Zlcfrv5xkMP29X
fa9nHoHuLyZgikb5hn1YJwmsvw4Oj8z3N5m7lhyj/ZAoX/a5NCwbE/huJVmkHeLw
qItpxUK0Aa+QMMaHd/59ZuDCxCG+xH/7b+0EEqTZih644nEN7eS7NnImRix9JxMC
AwEAAaOCAbMwggGvMA8GA1UdEwEB/wQFMAMBAf8wCwYDVR0PBAQDAgEGMB0GA1Ud
DgQWBBRrNfeTjJL3RxL8i60o9Vy3IWcx0TAfBgNVHSMEGDAWgBRJt8bP6D0ff+pE
exMp9/EKcD7eZDAfBgNVHREEGDAWgRRjYS13aW5zaHV0dGxlQGRmbi5kZTCBiAYD
VR0fBIGAMH4wPaA7oDmGN2h0dHA6Ly9jZHAxLnBjYS5kZm4uZGUvZ2xvYmFsLXJv
b3QtY2EvcHViL2NybC9jYWNybC5jcmwwPaA7oDmGN2h0dHA6Ly9jZHAyLnBjYS5k
Zm4uZGUvZ2xvYmFsLXJvb3QtY2EvcHViL2NybC9jYWNybC5jcmwwgaIGCCsGAQUF
BwEBBIGVMIGSMEcGCCsGAQUFBzAChjtodHRwOi8vY2RwMS5wY2EuZGZuLmRlL2ds
b2JhbC1yb290LWNhL3B1Yi9jYWNlcnQvY2FjZXJ0LmNydDBHBggrBgEFBQcwAoY7
aHR0cDovL2NkcDIucGNhLmRmbi5kZS9nbG9iYWwtcm9vdC1jYS9wdWIvY2FjZXJ0
L2NhY2VydC5jcnQwDQYJKoZIhvcNAQEFBQADggEBAB8W/wuZOdjTQlc5WLkOSSKd
fbMxrvuf+U+5Uiy+yUjrle4zfQZeWZ8JqVG/dzk2U+mrSK+eEurR+9d5oSaMqikx
N8AxZZiky4qDesrK3Ec+ZBygyJimxUQnT909Vzp8yMn9qGL4WQSFKRb3BF8y2WLB
ahSeMyHQD4Hz5/UD02Ef89dVsrXyc2RS9Tv3Sr+YYZor9uQGOhaUFUt49Rx6e1fK
EoPG2vyz9752eCvwDuCbdYtiFhCZ8yvDaQRL+zFOoSrI0BgeVmlPimjW3AYn9NH5
uH8547AED9syxr8UI9VpowpHtmr0ftjmeSylZPJ6R8CSmHwmKa8fTL5NhzPZ2fw=
-----END CERTIFICATE-----
