-----BEGIN CERTIFICATE-----
MIIEMTCCAxmgAwIBAgIJAMD65aZSXu0DMA0GCSqGSIb3DQEBBQUAMH4xCzAJBgNV
BAYTAlVTMQswCQYDVQQIDAJJTDESMBAGA1UEBwwJQ2hhbXBhaWduMQ0wCwYDVQQK
DARVSVVDMQswCQYDVQQLDAJDUzERMA8GA1UEAwwISUFOIFRlc3QxHzAdBgkqhkiG
9w0BCQEWEHRlc3RAaWFudGVzdC5jb20wHhcNMTYwOTA3MjExMDEyWhcNMTcwOTA3
MjExMDEyWjB+MQswCQYDVQQGEwJVUzELMAkGA1UECAwCSUwxEjAQBgNVBAcMCUNo
YW1wYWlnbjENMAsGA1UECgwEVUlVQzELMAkGA1UECwwCQ1MxETAPBgNVBAMMCElB
TiBUZXN0MR8wHQYJKoZIhvcNAQkBFhB0ZXN0QGlhbnRlc3QuY29tMIIBIjANBgkq
hkiG9w0BAQEFAAOCAQ8AMIIBCgKCAQEA5Sj63YALzwmLnXNWuFmAZlv6sWelKFbP
+SWPPEtsjXGHE8R0rAE6lRjjCPw8CRMIIQgGeyxDuB0kLDiR6gG6aHOOb1hdOcxh
S7Cw7YsICeZ7V6fN9+opFGwdKJ998TvWsl1Vw2crfTL0P9YmRivevk9kOVfmj/dF
vqRzLL81CmNnDwfsgqo4l1/WxpOpB5+gua5Fu+q3WyEk8oPcr5jX5z4d8AVhi1ZU
YBr8wNrlR/RWfTJYqL0uch6hg2dLlzodG7v6kKSH/GVhPd1+eL4Kp4kNaFiJkHst
RDz9YZ0y505Z8VF9V3WRsZ7l6JyyRR7dbqJTwiVYM7uESKN2inDMYwIDAQABo4Gx
MIGuMIGeBgNVHRIEgZYwgZOCDWV4YW1wbGUuMS5jb22CDWV4YW1wbGUuMi5jb22H
BAECAwSBEHRlc3RAaWFudGVzdC5jb22BEnRlc3QyQGlhbnRlc3QyLmNvbYgDKgME
hhdodHRwOi8vd3d3Lmluc2VjdXJlLmNvbaApBgMqAwSgIgwgREJWemIyMWxJRzkw
YUdWeUlHbGtaVzUwYVdacFpYST0wCwYDVR0PBAQDAgWgMA0GCSqGSIb3DQEBBQUA
A4IBAQA0pTIxtcQ+qN8eaFOEOo8XmievCpUC26YjQVC19mztXVV7h89T4dzuM2/I
bO/eHarKco5Ftf5mBdfXJRpUvdUkGkqiDCvyiClVuvmr8PkqsjAjydQcX2Z4w+MO
PSKa24TgqpJK8dr1ipPXp7WIzByz29gSal60hWzykYhSn0O2lIpX2yfRmVotE7iU
DULHbk3xblR7dCiPvxWX+VkIgGfhaGqmj+HmOg6URM3KCHObwLDQ8Ay+IL+T+sWy
2LOtZrVzyzrQTHlLcDhx0i8XTdTmbBhIYzGB+LtO8Pq5GWn8vu3pVLEcKGrcL2P3
rld5zaorqSVL/hddUCLM3v9X/pMQ
-----END CERTIFICATE-----
Certificate:
    Data:
        Version: 3 (0x2)
        Serial Number:
            c0:fa:e5:a6:52:5e:ed:03
        Signature Algorithm: sha1WithRSAEncryption
        Issuer: C=US, ST=IL, L=Champaign, O=UIUC, OU=CS, CN=IAN Test/emailAddress=test@iantest.com
        Validity
            Not Before: Sep  7 21:10:12 2016 GMT
            Not After : Sep  7 21:10:12 2017 GMT
        Subject: C=US, ST=IL, L=Champaign, O=UIUC, OU=CS, CN=IAN Test/emailAddress=test@iantest.com
        Subject Public Key Info:
            Public Key Algorithm: rsaEncryption
            RSA Public Key: (2048 bit)
                Modulus (2048 bit):
                    00:e5:28:fa:dd:80:0b:cf:09:8b:9d:73:56:b8:59:
                    80:66:5b:fa:b1:67:a5:28:56:cf:f9:25:8f:3c:4b:
                    6c:8d:71:87:13:c4:74:ac:01:3a:95:18:e3:08:fc:
                    3c:09:13:08:21:08:06:7b:2c:43:b8:1d:24:2c:38:
                    91:ea:01:ba:68:73:8e:6f:58:5d:39:cc:61:4b:b0:
                    b0:ed:8b:08:09:e6:7b:57:a7:cd:f7:ea:29:14:6c:
                    1d:28:9f:7d:f1:3b:d6:b2:5d:55:c3:67:2b:7d:32:
                    f4:3f:d6:26:46:2b:de:be:4f:64:39:57:e6:8f:f7:
                    45:be:a4:73:2c:bf:35:0a:63:67:0f:07:ec:82:aa:
                    38:97:5f:d6:c6:93:a9:07:9f:a0:b9:ae:45:bb:ea:
                    b7:5b:21:24:f2:83:dc:af:98:d7:e7:3e:1d:f0:05:
                    61:8b:56:54:60:1a:fc:c0:da:e5:47:f4:56:7d:32:
                    58:a8:bd:2e:72:1e:a1:83:67:4b:97:3a:1d:1b:bb:
                    fa:90:a4:87:fc:65:61:3d:dd:7e:78:be:0a:a7:89:
                    0d:68:58:89:90:7b:2d:44:3c:fd:61:9d:32:e7:4e:
                    59:f1:51:7d:57:75:91:b1:9e:e5:e8:9c:b2:45:1e:
                    dd:6e:a2:53:c2:25:58:33:bb:84:48:a3:76:8a:70:
                    cc:63
                Exponent: 65537 (0x10001)
        X509v3 extensions:
            X509v3 Issuer Alternative Name: 
                DNS:example.1.com, DNS:example.2.com, IP Address:1.2.3.4, email:test@iantest.com, email:test2@iantest2.com, Registered ID:1.2.3.4, URI:http://www.insecure.com, othername:<unsupported>
            X509v3 Key Usage: 
                Digital Signature, Key Encipherment
    Signature Algorithm: sha1WithRSAEncryption
        34:a5:32:31:b5:c4:3e:a8:df:1e:68:53:84:3a:8f:17:9a:27:
        af:0a:95:02:db:a6:23:41:50:b5:f6:6c:ed:5d:55:7b:87:cf:
        53:e1:dc:ee:33:6f:c8:6c:ef:de:1d:aa:ca:72:8e:45:b5:fe:
        66:05:d7:d7:25:1a:54:bd:d5:24:1a:4a:a2:0c:2b:f2:88:29:
        55:ba:f9:ab:f0:f9:2a:b2:30:23:c9:d4:1c:5f:66:78:c3:e3:
        0e:3d:22:9a:db:84:e0:aa:92:4a:f1:da:f5:8a:93:d7:a7:b5:
        88:cc:1c:b3:db:d8:12:6a:5e:b4:85:6c:f2:91:88:52:9f:43:
        b6:94:8a:57:db:27:d1:99:5a:2d:13:b8:94:0d:42:c7:6e:4d:
        f1:6e:54:7b:74:28:8f:bf:15:97:f9:59:08:80:67:e1:68:6a:
        a6:8f:e1:e6:3a:0e:94:44:cd:ca:08:73:9b:c0:b0:d0:f0:0c:
        be:20:bf:93:fa:c5:b2:d8:b3:ad:66:b5:73:cb:3a:d0:4c:79:
        4b:70:38:71:d2:2f:17:4d:d4:e6:6c:18:48:63:31:81:f8:bb:
        4e:f0:fa:b9:19:69:fc:be:ed:e9:54:b1:1c:28:6a:dc:2f:63:
        f7:ae:57:79:cd:aa:2b:a9:25:4b:fe:17:5d:50:22:cc:de:ff:
        57:fe:93:10
