Certificate:
    Data:
        Version: 3 (0x2)
        Serial Number: 0 (0x0)
        Signature Algorithm: md5WithRSAEncryption
        Issuer: C=US, ST=Michigan, L=Howell, O=Howell Public Schools, CN=admin.howellschools.com
        Validity
            Not Before: Apr 11 13:33:16 2006 GMT
            Not After : May 11 13:33:16 2006 GMT
        Subject: C=US, ST=Michigan, L=Howell, O=Howell Public Schools, CN=admin.howellschools.com
        Subject Public Key Info:
            Public Key Algorithm: rsaEncryption
            RSA Public Key: (1024 bit)
                Modulus (1024 bit):
                    00:a6:0b:c6:19:ac:53:f0:4b:0b:21:1d:b3:73:ae:
                    e1:d9:9b:fd:bd:64:bc:19:61:24:69:3a:3a:fa:1f:
                    be:d1:4d:44:40:d0:5f:0e:f1:86:52:c2:36:97:0e:
                    ed:5d:76:7d:4a:f3:82:ae:4b:0e:51:3e:4b:2b:92:
                    2b:08:1d:3e:2b:d1:a6:4d:d3:64:05:bc:21:bb:84:
                    b0:e4:54:e9:bb:af:57:08:14:ef:7c:2f:49:11:21:
                    5e:14:a7:09:25:c6:15:a8:60:1d:22:b6:47:f3:bd:
                    44:c0:3c:cb:f5:7f:e2:9c:a2:b2:b5:32:fa:16:df:
                    53:a7:36:c2:00:cd:ec:34:c1
                Exponent: 65537 (0x10001)
        X509v3 extensions:
            X509v3 Subject Key Identifier: 
                45:03:EE:F5:28:53:78:50:61:02:BA:21:7D:81:07:1A:17:98:5C:D1
            X509v3 Authority Key Identifier: 
                keyid:45:03:EE:F5:28:53:78:50:61:02:BA:21:7D:81:07:1A:17:98:5C:D1
                DirName:/C=US/ST=Michigan/L=Howell/O=Howell Public Schools/CN=admin.howellschools.com
                serial:00

            X509v3 Basic Constraints: 
                CA:TRUE
    Signature Algorithm: md5WithRSAEncryption
        8e:57:6e:55:86:e7:13:ef:a8:c4:d8:a6:d5:c1:0d:5e:65:d6:
        79:de:6e:0e:d6:c8:06:be:cf:44:15:fb:1c:f3:40:91:84:6c:
        02:aa:b4:4d:2d:96:24:ed:32:bf:a4:51:1d:b6:13:36:8a:8b:
        02:72:b4:d4:15:1a:cc:99:ca:81:ab:1d:14:13:f9:62:f5:07:
        59:55:c6:4b:89:a3:9e:2c:ef:e0:8f:f6:e5:d5:fb:9e:72:26:
        9b:6f:9d:75:1c:fb:34:96:81:d9:65:6a:72:20:c7:79:93:65:
        f7:cb:ff:5b:7b:41:47:32:ac:ba:b9:4b:df:ae:f2:f0:6d:7d:
        ef:e7
-----BEGIN CERTIFICATE-----
MIIDLTCCApagAwIBAgIBADANBgkqhkiG9w0BAQQFADBzMQswCQYDVQQGEwJVUzER
MA8GA1UECBMITWljaGlnYW4xDzANBgNVBAcTBkhvd2VsbDEeMBwGA1UEChMVSG93
ZWxsIFB1YmxpYyBTY2hvb2xzMSAwHgYDVQQDExdhZG1pbi5ob3dlbGxzY2hvb2xz
LmNvbTAeFw0wNjA0MTExMzMzMTZaFw0wNjA1MTExMzMzMTZaMHMxCzAJBgNVBAYT
AlVTMREwDwYDVQQIEwhNaWNoaWdhbjEPMA0GA1UEBxMGSG93ZWxsMR4wHAYDVQQK
ExVIb3dlbGwgUHVibGljIFNjaG9vbHMxIDAeBgNVBAMTF2FkbWluLmhvd2VsbHNj
aG9vbHMuY29tMIGfMA0GCSqGSIb3DQEBAQUAA4GNADCBiQKBgQCmC8YZrFPwSwsh
HbNzruHZm/29ZLwZYSRpOjr6H77RTURA0F8O8YZSwjaXDu1ddn1K84KuSw5RPksr
kisIHT4r0aZN02QFvCG7hLDkVOm7r1cIFO98L0kRIV4UpwklxhWoYB0itkfzvUTA
PMv1f+KcorK1MvoW31OnNsIAzew0wQIDAQABo4HQMIHNMB0GA1UdDgQWBBRFA+71
KFN4UGECuiF9gQcaF5hc0TCBnQYDVR0jBIGVMIGSgBRFA+71KFN4UGECuiF9gQca
F5hc0aF3pHUwczELMAkGA1UEBhMCVVMxETAPBgNVBAgTCE1pY2hpZ2FuMQ8wDQYD
VQQHEwZIb3dlbGwxHjAcBgNVBAoTFUhvd2VsbCBQdWJsaWMgU2Nob29sczEgMB4G
A1UEAxMXYWRtaW4uaG93ZWxsc2Nob29scy5jb22CAQAwDAYDVR0TBAUwAwEB/zAN
BgkqhkiG9w0BAQQFAAOBgQCOV25VhucT76jE2KbVwQ1eZdZ53m4O1sgGvs9EFfsc
80CRhGwCqrRNLZYk7TK/pFEdthM2iosCcrTUFRrMmcqBqx0UE/li9QdZVcZLiaOe
LO/gj/bl1fueciabb511HPs0loHZZWpyIMd5k2X3y/9be0FHMqy6uUvfrvLwbX3v
5w==
-----END CERTIFICATE-----
