Certificate:
    Data:
        Version: 3 (0x2)
        Serial Number: 1 (0x1)
        Signature Algorithm: sha1WithRSAEncryption
        Issuer: CN=unittest
        Validity
            Not Before: Dec 23 02:29:48 2010 GMT
            Not After : Dec 24 02:29:48 2010 GMT
        Subject: CN=unittest
        Subject Public Key Info:
            Public Key Algorithm: rsaEncryption
            RSA Public Key: (1024 bit)
                Modulus (1024 bit):
                    00:d4:ac:33:4e:47:05:f0:91:ec:ba:d4:1b:5b:6b:
                    04:6c:c0:89:0a:13:cd:7e:79:98:65:20:ea:4c:c8:
                    a6:b2:52:18:b8:a8:1e:6a:68:08:34:32:dd:0e:7f:
                    b4:b0:5d:80:3f:36:4d:00:0f:37:1b:23:e8:e7:6e:
                    5f:32:d6:04:9a:1c:dd:f7:23:f3:8e:f5:b1:04:c0:
                    1b:4b:d9:cf:a2:17:46:7d:b4:8e:22:43:59:54:d8:
                    b4:36:aa:25:bc:9d:f7:50:db:51:d4:15:b7:27:92:
                    4d:f5:bc:4f:30:37:38:77:73:7d:f6:46:05:73:be:
                    8e:67:cf:2a:55:91:a9:8b:81
                Exponent: 65537 (0x10001)
    Signature Algorithm: sha1WithRSAEncryption
        1b:b9:b6:80:b3:70:ae:b3:2a:f8:99:7b:e5:23:e4:45:51:50:
        cc:03:cb:0c:02:03:b1:5a:75:6e:c9:9a:00:95:b7:ac:90:f5:
        85:e0:92:a6:5e:96:4d:1a:a1:d2:99:b3:e7:92:58:7b:b2:c7:
        41:0a:56:e6:73:68:88:88:d9:bf:cf:2a:77:c6:54:8b:c0:bb:
        94:af:cd:da:9c:f2:69:70:13:2e:1c:05:8a:15:16:71:4e:20:
        cc:cd:f7:7a:7d:b9:41:11:63:ca:35:7c:12:90:13:62:e1:46:
        fd:ef:f3:a3:d8:7b:3e:44:23:bc:5b:51:cf:f9:6a:2f:bd:2e:
        45:de
-----BEGIN CERTIFICATE-----
MIIBmjCCAQOgAwIBAgIBATANBgkqhkiG9w0BAQUFADATMREwDwYDVQQDEwh1bml0
dGVzdDAeFw0xMDEyMjMwMjI5NDhaFw0xMDEyMjQwMjI5NDhaMBMxETAPBgNVBAMT
CHVuaXR0ZXN0MIGfMA0GCSqGSIb3DQEBAQUAA4GNADCBiQKBgQDUrDNORwXwkey6
1BtbawRswIkKE81+eZhlIOpMyKayUhi4qB5qaAg0Mt0Of7SwXYA/Nk0ADzcbI+jn
bl8y1gSaHN33I/OO9bEEwBtL2c+iF0Z9tI4iQ1lU2LQ2qiW8nfdQ21HUFbcnkk31
vE8wNzh3c332RgVzvo5nzypVkamLgQIDAQABMA0GCSqGSIb3DQEBBQUAA4GBABu5
toCzcK6zKviZe+Uj5EVRUMwDywwCA7FadW7JmgCVt6yQ9YXgkqZelk0aodKZs+eS
WHuyx0EKVuZzaIiI2b/PKnfGVIvAu5Svzdqc8mlwEy4cBYoVFnFOIMzN93p9uUER
Y8o1fBKQE2LhRv3v86PYez5EI7xbUc/5ai+9LkXe
-----END CERTIFICATE-----
